(dp0
S'noBigFiles'
p1
S'Y'
p2
sS'minimalOutput'
p3
I00
sS'inputDir'
p4
S'/media/alex/Extra/Dropbox/Code/FERMI/testInput'
p5
sS'REF'
p6
S'/media/alex/Extra/Dropbox/Code/ReferenceGenomes/hg19.fa'
p7
sS'freebayes'
p8
S'freebayes'
p9
sS'badBaseSubstitute'
p10
I01
sS'duplex'
p11
I01
sS'distance_stringency'
p12
I1
sS'previousDict'
p13
S'n'
p14
sS'twoUmiOut'
p15
S'/media/alex/Extra/Dropbox/Code/FERMI/testOutput/2017-06-26_5_0.75_Run_4/dup4_1.fastq/twoUMIs.fastq'
p16
sS'final_output_file'
p17
S'/media/alex/Extra/Dropbox/Code/FERMI/testOutput/2017-06-26_5_0.75_Run_4/dup4_1.fastq/finalOutput.fastq'
p18
sS'outputDir'
p19
S'/media/alex/Extra/Dropbox/Code/FERMI/testOutput/2017-06-26_5_0.75_Run_4/dup4_1.fastq'
p20
sS'prevDictLoc'
p21
S'null'
p22
sS'realvsmock'
p23
I01
sS'read1'
p24
S'dup4_1.fastq'
p25
sS'readLength'
p26
I120
sS'read2'
p27
S'dup4_2.fastq'
p28
sS'alignAndVar'
p29
g14
sS'coverage_file'
p30
S'/media/alex/Extra/Dropbox/Code/FERMI/testOutput/2017-06-26_5_0.75_Run_4/dup4_1.fastq/coverageData.txt'
p31
sS'varThresh'
p32
F0.75
sS'clusterRun'
p33
g14
sS'supportingReads'
p34
I5
sS'pickleOutput'
p35
S'/media/alex/Extra/Dropbox/Code/FERMI/testOutput/2017-06-26_5_0.75_Run_4/dup4_1.fastq/sortedSeqData.pkl'
p36
sS'errorRate'
p37
g2
sS'aonum'
p38
I5
sS'dpnum'
p39
I500
sS'numFiles'
p40
g2
s.