(dp0
S'noBigFiles'
p1
S'Y'
p2
sS'inputDir'
p3
S'/media/alex/Extra/Dropbox/Code/FERMI/testInput'
p4
sS'REF'
p5
S'/media/alex/Extra/Dropbox/Code/ReferenceGenomes/hg19.fa'
p6
sS'freebayes'
p7
S'freebayes'
p8
sS'badBaseSubstitute'
p9
I01
sS'distance_stringency'
p10
I1
sS'previousDict'
p11
S'n'
p12
sS'twoUmiOut'
p13
S'/media/alex/Extra/Dropbox/Code/FERMI/testOutput/2017-02-09_5_0.55/21r1small.fastq/twoUMIs.fastq'
p14
sS'final_output_file'
p15
S'/media/alex/Extra/Dropbox/Code/FERMI/testOutput/2017-02-09_5_0.55/21r1small.fastq/finalOutput.fastq'
p16
sS'outputDir'
p17
S'/media/alex/Extra/Dropbox/Code/FERMI/testOutput/2017-02-09_5_0.55/21r1small.fastq'
p18
sS'prevDictLoc'
p19
S'null'
p20
sS'read1'
p21
S'21r1small.fastq'
p22
sS'readLength'
p23
I120
sS'read2'
p24
S'21r2small.fastq'
p25
sS'alignAndVar'
p26
g2
sS'coverage_file'
p27
S'/media/alex/Extra/Dropbox/Code/FERMI/testOutput/2017-02-09_5_0.55/21r1small.fastq/coverageData.txt'
p28
sS'varThresh'
p29
F0.55
sS'clusterRun'
p30
g12
sS'supportingReads'
p31
I5
sS'pickleOutput'
p32
S'/media/alex/Extra/Dropbox/Code/FERMI/testOutput/2017-02-09_5_0.55/21r1small.fastq/sortedSeqData.pkl'
p33
sS'errorRate'
p34
g2
sS'aonum'
p35
I5
sS'dpnum'
p36
I500
sS'numFiles'
p37
g12
s.